target datalayout = "e-m:e-p270:32:32-p271:32:32-p272:64:64-i64:64-i128:128-f80:128-n8:16:32:64-S128"
target triple = "x86_64-pc-linux-gnu"

%struct.cli_bc_type = type { i32, ptr, i32, i32, i32 }
%struct.cli_bc = type { %struct.bytecode_metadata, i32, i32, i32, i32, ptr, ptr, ptr, ptr, i64, i32, ptr, ptr, ptr, ptr, i32, i16, ptr, i32, i32, i32, i32, ptr, i32, i32, ptr }
%struct.bytecode_metadata = type { ptr, ptr, i64, i32, i32, i32, i32, i32 }

@.str.126 = private unnamed_addr constant [2 x i8] c"\0A\00", align 1
@bc_tystr = global [5 x ptr] [ptr @.str.127, ptr @.str.128, ptr @.str.129, ptr @.str.130, ptr @.str.131], align 16
@.str.184 = private unnamed_addr constant [54 x i8] c"found %d extra types of %d total, starting at tid %d\0A\00", align 1
@.str.185 = private unnamed_addr constant [35 x i8] c"TID  KIND                INTERNAL\0A\00", align 1
@.str.186 = private unnamed_addr constant [74 x i8] c"------------------------------------------------------------------------\0A\00", align 1
@.str.187 = private unnamed_addr constant [11 x i8] c"%3d: %-20s\00", align 1

; Function Attrs: nounwind uwtable
define void @cli_bytetype_describe(ptr noundef %0) #0 {
  %2 = alloca ptr, align 8
  %3 = alloca i32, align 4
  %4 = alloca i32, align 4
  store ptr %0, ptr %2, align 8
  %5 = load ptr, ptr %2, align 8
  %6 = getelementptr inbounds %struct.cli_bc, ptr %5, i32 0, i32 3
  %7 = load i32, ptr %6, align 8
  %8 = load ptr, ptr %2, align 8
  %9 = getelementptr inbounds %struct.cli_bc, ptr %8, i32 0, i32 3
  %10 = load i32, ptr %9, align 8
  %11 = add i32 64, %10
  %12 = load ptr, ptr %2, align 8
  %13 = getelementptr inbounds %struct.cli_bc, ptr %12, i32 0, i32 16
  %14 = load i16, ptr %13, align 4
  %15 = zext i16 %14 to i32
  %16 = call i32 (ptr, ...) @printf(ptr noundef @.str.184, i32 noundef %7, i32 noundef %11, i32 noundef %15)
  %17 = call i32 (ptr, ...) @printf(ptr noundef @.str.185)
  %18 = call i32 (ptr, ...) @printf(ptr noundef @.str.186)
  store i32 0, ptr %3, align 4
  store i32 65, ptr %4, align 4
  br label %19

19:                                               ; preds = %43, %1
  %20 = load i32, ptr %3, align 4
  %21 = load ptr, ptr %2, align 8
  %22 = getelementptr inbounds %struct.cli_bc, ptr %21, i32 0, i32 3
  %23 = load i32, ptr %22, align 8
  %24 = sub i32 %23, 1
  %25 = icmp ult i32 %20, %24
  br i1 %25, label %26, label %48

26:                                               ; preds = %19
  %27 = load i32, ptr %4, align 4
  %28 = load ptr, ptr %2, align 8
  %29 = getelementptr inbounds %struct.cli_bc, ptr %28, i32 0, i32 6
  %30 = load ptr, ptr %29, align 8
  %31 = load i32, ptr %3, align 4
  %32 = zext i32 %31 to i64
  %33 = getelementptr inbounds %struct.cli_bc_type, ptr %30, i64 %32
  %34 = getelementptr inbounds %struct.cli_bc_type, ptr %33, i32 0, i32 0
  %35 = load i32, ptr %34, align 8
  %36 = zext i32 %35 to i64
  %37 = getelementptr inbounds [5 x ptr], ptr @bc_tystr, i64 0, i64 %36
  %38 = load ptr, ptr %37, align 8
  %39 = call i32 (ptr, ...) @printf(ptr noundef @.str.187, i32 noundef %27, ptr noundef %38)
  %40 = load ptr, ptr %2, align 8
  %41 = load i32, ptr %4, align 4
  call void @cli_bytetype_helper(ptr noundef %40, i32 noundef %41)
  %42 = call i32 (ptr, ...) @printf(ptr noundef @.str.126)
  br label %43

43:                                               ; preds = %26
  %44 = load i32, ptr %3, align 4
  %45 = add i32 %44, 1
  store i32 %45, ptr %3, align 4
  %46 = load i32, ptr %4, align 4
  %47 = add i32 %46, 1
  store i32 %47, ptr %4, align 4
  br label %19

48:                                               ; preds = %19
  %49 = call i32 (ptr, ...) @printf(ptr noundef @.str.186)
  ret void
}