; Function Attrs: nofree nounwind uwtable
define void @cli_bytetype_describe(ptr noundef %0) local_unnamed_addr #16 {
  %2 = getelementptr inbounds i8, ptr %0, i64 56
  %3 = load i32, ptr %2, align 8
  %4 = add i32 %3, 64
  %5 = getelementptr inbounds i8, ptr %0, i64 148
  %6 = load i16, ptr %5, align 4
  %7 = zext i16 %6 to i32
  %8 = tail call i32 (ptr, ...) @printf(ptr noundef nonnull dereferenceable(1) @.str.184, i32 noundef %3, i32 noundef %4, i32 noundef %7)
  %puts = tail call i32 @puts(ptr nonnull dereferenceable(1) @str.1)
  %puts12 = tail call i32 @puts(ptr nonnull dereferenceable(1) @str.17)
  %9 = load i32, ptr %2, align 8
  %.not = icmp eq i32 %9, 1
  br i1 %.not, label %._crit_edge, label %.lr.ph

.lr.ph:                                           ; preds = %1
  %10 = getelementptr inbounds i8, ptr %0, i64 72
  br label %11

11:                                               ; preds = %.lr.ph, %11
  %indvars.iv = phi i64 [ 0, %.lr.ph ], [ %indvars.iv.next, %11 ]
  %.015 = phi i32 [ 65, %.lr.ph ], [ %19, %11 ]
  %12 = load ptr, ptr %10, align 8
  %13 = getelementptr inbounds %struct.cli_bc_type, ptr %12, i64 %indvars.iv
  %14 = load i32, ptr %13, align 8
  %15 = zext i32 %14 to i64
  %16 = getelementptr inbounds [5 x ptr], ptr @bc_tystr, i64 0, i64 %15
  %17 = load ptr, ptr %16, align 8
  %18 = tail call i32 (ptr, ...) @printf(ptr noundef nonnull dereferenceable(1) @.str.187, i32 noundef %.015, ptr noundef %17)
  tail call fastcc void @cli_bytetype_helper(ptr noundef nonnull %0, i32 noundef %.015)
  %putchar = tail call i32 @putchar(i32 10)
  %indvars.iv.next = add nuw nsw i64 %indvars.iv, 1
  %19 = add i32 %.015, 1
  %20 = load i32, ptr %2, align 8
  %21 = add i32 %20, -1
  %22 = zext i32 %21 to i64
  %23 = icmp ult i64 %indvars.iv.next, %22
  br i1 %23, label %11, label %._crit_edge

._crit_edge:                                      ; preds = %11, %1
  %puts13 = tail call i32 @puts(ptr nonnull dereferenceable(1) @str.17)
  ret void
}